; ModuleID = '16/442.c'
source_filename = "16/442.c"
target datalayout = "e-m:e-p270:32:32-p271:32:32-p272:64:64-i64:64-f80:128-n8:16:32:64-S128"
target triple = "x86_64-pc-linux-gnu"

; Function Attrs: noinline nounwind uwtable
define dso_local i32 @main() #0 {
  %1 = alloca i32, align 4
  %2 = alloca [6 x i8], align 1
  %3 = alloca [6 x i8], align 1
  %4 = alloca i32, align 4
  %5 = alloca i32, align 4
  store i32 0, i32* %1, align 4
  %6 = getelementptr inbounds [6 x i8], [6 x i8]* %2, i64 0, i64 0
  %7 = call i32 (i8*, ...) bitcast (i32 (...)* @gets to i32 (i8*, ...)*)(i8* %6)
  %8 = getelementptr inbounds [6 x i8], [6 x i8]* %2, i64 0, i64 0
  %9 = call i64 @strlen(i8* %8) #3
  %10 = trunc i64 %9 to i32
  store i32 %10, i32* %5, align 4
  store i32 0, i32* %4, align 4
  br label %11

11:                                               ; preds = %27, %0
  %12 = load i32, i32* %4, align 4
  %13 = load i32, i32* %5, align 4
  %14 = sub nsw i32 %13, 1
  %15 = icmp sle i32 %12, %14
  br i1 %15, label %16, label %30

16:                                               ; preds = %11
  %17 = load i32, i32* %4, align 4
  %18 = sext i32 %17 to i64
  %19 = getelementptr inbounds [6 x i8], [6 x i8]* %2, i64 0, i64 %18
  %20 = load i8, i8* %19, align 1
  %21 = load i32, i32* %5, align 4
  %22 = sub nsw i32 %21, 1
  %23 = load i32, i32* %4, align 4
  %24 = sub nsw i32 %22, %23
  %25 = sext i32 %24 to i64
  %26 = getelementptr inbounds [6 x i8], [6 x i8]* %3, i64 0, i64 %25
  store i8 %20, i8* %26, align 1
  br label %27

27:                                               ; preds = %16
  %28 = load i32, i32* %4, align 4
  %29 = add nsw i32 %28, 1
  store i32 %29, i32* %4, align 4
  br label %11

30:                                               ; preds = %11
  %31 = load i32, i32* %5, align 4
  store i32 %31, i32* %4, align 4
  br label %32

32:                                               ; preds = %39, %30
  %33 = load i32, i32* %4, align 4
  %34 = icmp sle i32 %33, 5
  br i1 %34, label %35, label %42

35:                                               ; preds = %32
  %36 = load i32, i32* %4, align 4
  %37 = sext i32 %36 to i64
  %38 = getelementptr inbounds [6 x i8], [6 x i8]* %3, i64 0, i64 %37
  store i8 0, i8* %38, align 1
  br label %39

39:                                               ; preds = %35
  %40 = load i32, i32* %4, align 4
  %41 = add nsw i32 %40, 1
  store i32 %41, i32* %4, align 4
  br label %32

42:                                               ; preds = %32
  %43 = getelementptr inbounds [6 x i8], [6 x i8]* %3, i64 0, i64 0
  %44 = call i32 @puts(i8* %43)
  %45 = load i32, i32* %1, align 4
  ret i32 %45
}

declare dso_local i32 @gets(...) #1

; Function Attrs: nounwind readonly
declare dso_local i64 @strlen(i8*) #2

declare dso_local i32 @puts(i8*) #1


!llvm.module.flags = !{!0}
!llvm.ident = !{!1}

!0 = !{i32 1, !"wchar_size", i32 4}
!1 = !{!"clang version 10.0.0-4ubuntu1 "}
